#include <math.h>
#include <stdio.h>
#include <stdlib.h>
#include <string.h>
#include <iostream>
using namespace std;

//********************************
//*??  ?????????  *****
//*????? 1300012753     ***** 
//*???2013.10.09          *****  
//********************************
int main()
{
    int n;          // n???????? 
    cin >> n;       // ??n
    
    // ????????
    for (int i = 1; i <= n; i++)
    {
        double a, b, c;                  // a?b?c?????? 
        cin >> a >> b >> c;
        double x1, x2, deta;             // ??x1 x2???????deta??b^2-4ac 

        // ????????? 
        deta = b * b - 4.0 * a * c;
        if (deta == 0)                  // ??deta??0??x1=x2?????? 
        {
            x1 = (-b) / (2.0 * a);
            if(x1 == -0)                // ??x1?????-0????0 
            {
                  x1 = 0;
            }
            printf("x1=x2=%.5lf\n", x1);         
        }
        else if(deta > 0)               
        {
             x1 = (-b + sqrt(deta)) / (2 * a);
             x2 = (-b - sqrt(deta)) / (2 * a);
             if(x1 == -0)
            {
                  x1 = 0;
            }
            if(x2 == -0)
            {
                  x2 = 0;
            }
             printf("x1=%.5lf;x2=%.5lf\n", x1, x2);
        }
        else                           // ??deta??0??????????? 
        {
            double s, x;
            s = (-b) / (2.0 * a);
            x = (sqrt(-deta)) / (2 * a);
            if(s == -0)
            {
                  s = 0;
            }
            printf("x1=%.5lf+%.5lfi;x2=%.5lf-%.5lfi\n", s, x, s, x);
        }
    }
    return 0; 
}